target datalayout = "e-m:e-p270:32:32-p271:32:32-p272:64:64-i64:64-i128:128-f80:128-n8:16:32:64-S128"
target triple = "x86_64-pc-linux-gnu"

%struct.dictType = type { ptr, ptr, ptr, ptr, ptr, ptr, ptr, ptr, ptr, ptr, ptr, i8, ptr, ptr, ptr }
%struct.client = type { i64, i64, ptr, i8, i8, i8, i8, i32, ptr, ptr, ptr, ptr, ptr, i64, i64, i32, ptr, i32, i32, ptr, i64, ptr, ptr, ptr, ptr, ptr, i32, i32, i64, ptr, i64, ptr, i64, i64, i64, i32, ptr, i64, i64, i32, i32, i32, i32, i64, i64, ptr, i64, i64, i64, i64, i64, i64, i64, i64, [41 x i8], i32, ptr, i32, i32, i64, %struct.multiState, %struct.blockingState, i64, ptr, ptr, ptr, ptr, ptr, ptr, ptr, ptr, ptr, ptr, ptr, ptr, ptr, ptr, i64, ptr, i64, i32, ptr, ptr, ptr, i64, %struct.listNode, i64, i64, i32, i64, ptr }
%struct.multiState = type { ptr, i32, i32, i32, i64, i32 }
%struct.blockingState = type { i32, i64, i32, ptr, i32, i32, i64, ptr, ptr, i64 }
%struct.listNode = type { ptr, ptr, ptr }

@objectKeyHeapPointerValueDictType = external global %struct.dictType, align 8

; Function Attrs: nounwind uwtable
define dso_local void @initClientBlockingState(ptr noundef %0) #0 {
  %2 = alloca ptr, align 8
  store ptr %0, ptr %2, align 8, !tbaa !5
  %3 = load ptr, ptr %2, align 8, !tbaa !5
  %4 = getelementptr inbounds nuw %struct.client, ptr %3, i32 0, i32 61
  %5 = getelementptr inbounds nuw %struct.blockingState, ptr %4, i32 0, i32 0
  store i32 0, ptr %5, align 8, !tbaa !10
  %6 = load ptr, ptr %2, align 8, !tbaa !5
  %7 = getelementptr inbounds nuw %struct.client, ptr %6, i32 0, i32 61
  %8 = getelementptr inbounds nuw %struct.blockingState, ptr %7, i32 0, i32 1
  store i64 0, ptr %8, align 8, !tbaa !30
  %9 = call ptr @dictCreate(ptr noundef @objectKeyHeapPointerValueDictType)
  %10 = load ptr, ptr %2, align 8, !tbaa !5
  %11 = getelementptr inbounds nuw %struct.client, ptr %10, i32 0, i32 61
  %12 = getelementptr inbounds nuw %struct.blockingState, ptr %11, i32 0, i32 3
  store ptr %9, ptr %12, align 8, !tbaa !31
  %13 = load ptr, ptr %2, align 8, !tbaa !5
  %14 = getelementptr inbounds nuw %struct.client, ptr %13, i32 0, i32 61
  %15 = getelementptr inbounds nuw %struct.blockingState, ptr %14, i32 0, i32 4
  store i32 0, ptr %15, align 8, !tbaa !32
  %16 = load ptr, ptr %2, align 8, !tbaa !5
  %17 = getelementptr inbounds nuw %struct.client, ptr %16, i32 0, i32 61
  %18 = getelementptr inbounds nuw %struct.blockingState, ptr %17, i32 0, i32 6
  store i64 0, ptr %18, align 8, !tbaa !33
  %19 = load ptr, ptr %2, align 8, !tbaa !5
  %20 = getelementptr inbounds nuw %struct.client, ptr %19, i32 0, i32 61
  %21 = getelementptr inbounds nuw %struct.blockingState, ptr %20, i32 0, i32 2
  store i32 0, ptr %21, align 8, !tbaa !34
  %22 = load ptr, ptr %2, align 8, !tbaa !5
  %23 = getelementptr inbounds nuw %struct.client, ptr %22, i32 0, i32 61
  %24 = getelementptr inbounds nuw %struct.blockingState, ptr %23, i32 0, i32 8
  store ptr null, ptr %24, align 8, !tbaa !35
  ret void
}