; Function Attrs: nounwind uwtable
define dso_local void @initClientBlockingState(ptr noundef writeonly captures(none) initializes((480, 484), (488, 500), (504, 516), (520, 528), (536, 544)) %0) local_unnamed_addr #0 {
  %2 = getelementptr inbounds nuw i8, ptr %0, i64 480
  store i32 0, ptr %2, align 8, !tbaa !5
  %3 = getelementptr inbounds nuw i8, ptr %0, i64 488
  store i64 0, ptr %3, align 8, !tbaa !28
  %4 = tail call ptr @dictCreate(ptr noundef nonnull @objectKeyHeapPointerValueDictType) #5
  %5 = getelementptr inbounds nuw i8, ptr %0, i64 504
  store ptr %4, ptr %5, align 8, !tbaa !29
  %6 = getelementptr inbounds nuw i8, ptr %0, i64 512
  store i32 0, ptr %6, align 8, !tbaa !30
  %7 = getelementptr inbounds nuw i8, ptr %0, i64 520
  store i64 0, ptr %7, align 8, !tbaa !31
  %8 = getelementptr inbounds nuw i8, ptr %0, i64 496
  store i32 0, ptr %8, align 8, !tbaa !32
  %9 = getelementptr inbounds nuw i8, ptr %0, i64 536
  store ptr null, ptr %9, align 8, !tbaa !33
  ret void
}